target datalayout = "e-m:e-p270:32:32-p271:32:32-p272:64:64-i64:64-i128:128-f80:128-n8:16:32:64-S128"
target triple = "x86_64-pc-linux-gnu"

%struct.rb_data_type_struct = type { ptr, %struct.anon, ptr, ptr, i64 }
%struct.anon = type { ptr, ptr, ptr, ptr, [1 x ptr] }
%struct.strscanner = type { i64, i64, i64, i64, %struct.re_registers, i64, i8 }
%struct.re_registers = type { i32, i32, ptr, ptr }
%struct.RString = type { %struct.RBasic, i64, %union.anon }
%struct.RBasic = type { i64, i64 }
%union.anon = type { %struct.anon.0 }
%struct.anon.0 = type { ptr, %union.anon.1 }
%union.anon.1 = type { i64 }

@strscanner_type = internal constant %struct.rb_data_type_struct { ptr @.str.2, %struct.anon { ptr @strscan_mark, ptr @strscan_free, ptr @strscan_memsize, ptr null, [1 x ptr] zeroinitializer }, ptr null, ptr null, i64 1 }, align 8
@rb_eArgError = external global i64, align 8
@.str.66 = private unnamed_addr constant [35 x i8] c"uninitialized StringScanner object\00", align 1

; Function Attrs: inlinehint nounwind sspstrong willreturn memory(read) uwtable
define internal i64 @RSTRING_LEN(i64 noundef %0) #11 {
  %2 = alloca i64, align 8
  store i64 %0, ptr %2, align 8, !tbaa !6
  %3 = load i64, ptr %2, align 8, !tbaa !6
  %4 = inttoptr i64 %3 to ptr
  %5 = getelementptr inbounds nuw %struct.RString, ptr %4, i32 0, i32 1
  %6 = load i64, ptr %5, align 8, !tbaa !35
  ret i64 %6
}

; Function Attrs: inlinehint nounwind sspstrong willreturn memory(none) uwtable
define internal zeroext i1 @RB_NIL_P(i64 noundef %0) #7 {
  %2 = alloca i64, align 8
  store i64 %0, ptr %2, align 8, !tbaa !6
  %3 = load i64, ptr %2, align 8, !tbaa !6
  %4 = icmp eq i64 %3, 4
  ret i1 %4
}

; Function Attrs: nounwind sspstrong uwtable
define internal ptr @check_strscan(i64 noundef %0) #0 {
  %2 = alloca i64, align 8
  store i64 %0, ptr %2, align 8, !tbaa !6
  %3 = load i64, ptr %2, align 8, !tbaa !6
  %4 = call ptr @rb_check_typeddata(i64 noundef %3, ptr noundef @strscanner_type)
  ret ptr %4
}

; Function Attrs: nounwind sspstrong uwtable
define internal i64 @strscan_terminate(i64 noundef %0) #0 {
  %2 = alloca i64, align 8
  %3 = alloca ptr, align 8
  store i64 %0, ptr %2, align 8, !tbaa !6
  call void @llvm.lifetime.start.p0(i64 8, ptr %3) #23
  br label %4

4:                                                ; preds = %1
  %5 = load i64, ptr %2, align 8, !tbaa !6
  %6 = call ptr @check_strscan(i64 noundef %5)
  store ptr %6, ptr %3, align 8, !tbaa !15
  %7 = load ptr, ptr %3, align 8, !tbaa !15
  %8 = getelementptr inbounds nuw %struct.strscanner, ptr %7, i32 0, i32 1
  %9 = load i64, ptr %8, align 8, !tbaa !22
  %10 = call zeroext i1 @RB_NIL_P(i64 noundef %9) #24
  br i1 %10, label %11, label %13

11:                                               ; preds = %4
  %12 = load i64, ptr @rb_eArgError, align 8, !tbaa !6
  call void (i64, ptr, ...) @rb_raise(i64 noundef %12, ptr noundef @.str.66) #27
  unreachable

13:                                               ; preds = %4
  br label %14

14:                                               ; preds = %13
  br label %15

15:                                               ; preds = %14
  %16 = load ptr, ptr %3, align 8, !tbaa !15
  %17 = getelementptr inbounds nuw %struct.strscanner, ptr %16, i32 0, i32 1
  %18 = load i64, ptr %17, align 8, !tbaa !22
  %19 = call i64 @RSTRING_LEN(i64 noundef %18) #28
  %20 = load ptr, ptr %3, align 8, !tbaa !15
  %21 = getelementptr inbounds nuw %struct.strscanner, ptr %20, i32 0, i32 3
  store i64 %19, ptr %21, align 8, !tbaa !27
  %22 = load ptr, ptr %3, align 8, !tbaa !15
  %23 = getelementptr inbounds nuw %struct.strscanner, ptr %22, i32 0, i32 0
  %24 = load i64, ptr %23, align 8, !tbaa !17
  %25 = and i64 %24, -2
  store i64 %25, ptr %23, align 8, !tbaa !17
  %26 = load i64, ptr %2, align 8, !tbaa !6
  call void @llvm.lifetime.end.p0(i64 8, ptr %3) #23
  ret i64 %26
}